; Function Attrs: mustprogress uwtable
define internal fastcc void @_ZN12_GLOBAL__N_113getWithPluralEPKN6icu_7513UnicodeStringENS0_14StandardPlural4FormER10UErrorCode(ptr noalias nonnull align 8 %agg.result, ptr noundef %strings, i32 noundef %plural, ptr nocapture noundef nonnull writeonly align 4 dereferenceable(4) %status) unnamed_addr #1 personality ptr @__gxx_personality_v0 {
entry:
  %idxprom = zext i32 %plural to i64
  %arrayidx = getelementptr inbounds %"class.icu_75::UnicodeString", ptr %strings, i64 %idxprom
  tail call void @_ZN6icu_7513UnicodeStringC1ERKS0_(ptr noundef nonnull align 8 dereferenceable(64) %agg.result, ptr noundef nonnull align 8 dereferenceable(64) %arrayidx)
  %fUnion.i = getelementptr inbounds i8, ptr %agg.result, i64 8
  %0 = load i16, ptr %fUnion.i, align 8
  %conv2.i4 = and i16 %0, 1
  %tobool.not = icmp eq i16 %conv2.i4, 0
  br i1 %tobool.not, label %nrvo.skipdtor, label %if.then

if.then:                                          ; preds = %entry
  %arrayidx1 = getelementptr inbounds i8, ptr %strings, i64 320
  %call2 = invoke noundef nonnull align 8 dereferenceable(64) ptr @_ZN6icu_7513UnicodeStringaSERKS0_(ptr noundef nonnull align 8 dereferenceable(64) %agg.result, ptr noundef nonnull align 8 dereferenceable(64) %arrayidx1)
          to label %if.end unwind label %lpad

lpad:                                             ; preds = %if.then
  %1 = landingpad { ptr, i32 }
          cleanup
  tail call void @_ZN6icu_7513UnicodeStringD1Ev(ptr noundef nonnull align 8 dereferenceable(64) %agg.result) #18
  resume { ptr, i32 } %1

if.end:                                           ; preds = %if.then
  %.pre = load i16, ptr %fUnion.i, align 8
  %.pre6 = and i16 %.pre, 1
  %2 = icmp eq i16 %.pre6, 0
  br i1 %2, label %nrvo.skipdtor, label %if.then5

if.then5:                                         ; preds = %if.end
  store i32 5, ptr %status, align 4
  br label %nrvo.skipdtor

nrvo.skipdtor:                                    ; preds = %entry, %if.end, %if.then5
  ret void
}